target datalayout = "e-m:e-p270:32:32-p271:32:32-p272:64:64-i64:64-i128:128-f80:128-n8:16:32:64-S128"
target triple = "x86_64-pc-linux-gnu"

%struct.Vec_Int_t_ = type { i32, i32, ptr }
%struct.Bmcs_Man_t_ = type { ptr, ptr, ptr, ptr, %struct.Vec_Ptr_t_, %struct.Vec_Int_t_, %struct.Vec_Int_t_, [100 x ptr], i32, i32, i32, i64, i64, i64, i64 }
%struct.Vec_Ptr_t_ = type { i32, i32, ptr }
%struct.Par_ThData_t_ = type { ptr, i32, i32, i32, i32 }

; Function Attrs: nounwind uwtable
define i32 @Bmcs_ManPerform_Solve(ptr noundef %0, i32 noundef %1, ptr noundef %2, ptr noundef %3, i32 noundef %4, ptr noundef %5) #0 {
  %7 = alloca ptr, align 8
  %8 = alloca i32, align 4
  %9 = alloca ptr, align 8
  %10 = alloca ptr, align 8
  %11 = alloca i32, align 4
  %12 = alloca ptr, align 8
  %13 = alloca i32, align 4
  %14 = alloca i32, align 4
  store ptr %0, ptr %7, align 8
  store i32 %1, ptr %8, align 4
  store ptr %2, ptr %9, align 8
  store ptr %3, ptr %10, align 8
  store i32 %4, ptr %11, align 4
  store ptr %5, ptr %12, align 8
  store i32 -1, ptr %14, align 4
  store i32 0, ptr %13, align 4
  br label %15

15:                                               ; preds = %26, %6
  %16 = load i32, ptr %13, align 4
  %17 = load i32, ptr %11, align 4
  %18 = icmp slt i32 %16, %17
  br i1 %18, label %19, label %29

19:                                               ; preds = %15
  %20 = load i32, ptr %8, align 4
  %21 = load ptr, ptr %10, align 8
  %22 = load i32, ptr %13, align 4
  %23 = sext i32 %22 to i64
  %24 = getelementptr inbounds %struct.Par_ThData_t_, ptr %21, i64 %23
  %25 = getelementptr inbounds %struct.Par_ThData_t_, ptr %24, i32 0, i32 1
  store i32 %20, ptr %25, align 8
  br label %26

26:                                               ; preds = %19
  %27 = load i32, ptr %13, align 4
  %28 = add nsw i32 %27, 1
  store i32 %28, ptr %13, align 4
  br label %15, !llvm.loop !45

29:                                               ; preds = %15
  store i32 0, ptr %13, align 4
  br label %30

30:                                               ; preds = %40, %29
  %31 = load i32, ptr %13, align 4
  %32 = load i32, ptr %11, align 4
  %33 = icmp slt i32 %31, %32
  br i1 %33, label %34, label %43

34:                                               ; preds = %30
  %35 = load ptr, ptr %10, align 8
  %36 = load i32, ptr %13, align 4
  %37 = sext i32 %36 to i64
  %38 = getelementptr inbounds %struct.Par_ThData_t_, ptr %35, i64 %37
  %39 = getelementptr inbounds %struct.Par_ThData_t_, ptr %38, i32 0, i32 3
  store i32 1, ptr %39, align 8
  br label %40

40:                                               ; preds = %34
  %41 = load i32, ptr %13, align 4
  %42 = add nsw i32 %41, 1
  store i32 %42, ptr %13, align 4
  br label %30, !llvm.loop !46

43:                                               ; preds = %30
  br label %44

44:                                               ; preds = %76, %43
  %45 = load i32, ptr %13, align 4
  %46 = load i32, ptr %11, align 4
  %47 = icmp eq i32 %45, %46
  br i1 %47, label %48, label %77

48:                                               ; preds = %44
  store i32 0, ptr %13, align 4
  br label %49

49:                                               ; preds = %73, %48
  %50 = load i32, ptr %13, align 4
  %51 = load i32, ptr %11, align 4
  %52 = icmp slt i32 %50, %51
  br i1 %52, label %53, label %76

53:                                               ; preds = %49
  %54 = load ptr, ptr %10, align 8
  %55 = load i32, ptr %13, align 4
  %56 = sext i32 %55 to i64
  %57 = getelementptr inbounds %struct.Par_ThData_t_, ptr %54, i64 %56
  %58 = getelementptr inbounds %struct.Par_ThData_t_, ptr %57, i32 0, i32 3
  %59 = load i32, ptr %58, align 8
  %60 = icmp ne i32 %59, 0
  br i1 %60, label %61, label %62

61:                                               ; preds = %53
  br label %73

62:                                               ; preds = %53
  %63 = load ptr, ptr %7, align 8
  %64 = getelementptr inbounds %struct.Bmcs_Man_t_, ptr %63, i32 0, i32 10
  store i32 1, ptr %64, align 8
  %65 = load ptr, ptr %10, align 8
  %66 = load i32, ptr %13, align 4
  %67 = sext i32 %66 to i64
  %68 = getelementptr inbounds %struct.Par_ThData_t_, ptr %65, i64 %67
  %69 = getelementptr inbounds %struct.Par_ThData_t_, ptr %68, i32 0, i32 4
  %70 = load i32, ptr %69, align 4
  store i32 %70, ptr %14, align 4
  %71 = load i32, ptr %13, align 4
  %72 = load ptr, ptr %12, align 8
  store i32 %71, ptr %72, align 4
  br label %76

73:                                               ; preds = %61
  %74 = load i32, ptr %13, align 4
  %75 = add nsw i32 %74, 1
  store i32 %75, ptr %13, align 4
  br label %49, !llvm.loop !47

76:                                               ; preds = %62, %49
  br label %44, !llvm.loop !48

77:                                               ; preds = %44
  br label %78

78:                                               ; preds = %100, %77
  %79 = load i32, ptr %13, align 4
  %80 = load i32, ptr %11, align 4
  %81 = icmp slt i32 %79, %80
  br i1 %81, label %82, label %101

82:                                               ; preds = %78
  store i32 0, ptr %13, align 4
  br label %83

83:                                               ; preds = %97, %82
  %84 = load i32, ptr %13, align 4
  %85 = load i32, ptr %11, align 4
  %86 = icmp slt i32 %84, %85
  br i1 %86, label %87, label %100

87:                                               ; preds = %83
  %88 = load ptr, ptr %10, align 8
  %89 = load i32, ptr %13, align 4
  %90 = sext i32 %89 to i64
  %91 = getelementptr inbounds %struct.Par_ThData_t_, ptr %88, i64 %90
  %92 = getelementptr inbounds %struct.Par_ThData_t_, ptr %91, i32 0, i32 3
  %93 = load i32, ptr %92, align 8
  %94 = icmp ne i32 %93, 0
  br i1 %94, label %95, label %96

95:                                               ; preds = %87
  br label %100

96:                                               ; preds = %87
  br label %97

97:                                               ; preds = %96
  %98 = load i32, ptr %13, align 4
  %99 = add nsw i32 %98, 1
  store i32 %99, ptr %13, align 4
  br label %83, !llvm.loop !49

100:                                              ; preds = %95, %83
  br label %78, !llvm.loop !50

101:                                              ; preds = %78
  store i32 0, ptr %13, align 4
  br label %102

102:                                              ; preds = %112, %101
  %103 = load i32, ptr %13, align 4
  %104 = load i32, ptr %11, align 4
  %105 = icmp slt i32 %103, %104
  br i1 %105, label %106, label %115

106:                                              ; preds = %102
  %107 = load ptr, ptr %10, align 8
  %108 = load i32, ptr %13, align 4
  %109 = sext i32 %108 to i64
  %110 = getelementptr inbounds %struct.Par_ThData_t_, ptr %107, i64 %109
  %111 = getelementptr inbounds %struct.Par_ThData_t_, ptr %110, i32 0, i32 1
  store i32 -1, ptr %111, align 8
  br label %112

112:                                              ; preds = %106
  %113 = load i32, ptr %13, align 4
  %114 = add nsw i32 %113, 1
  store i32 %114, ptr %13, align 4
  br label %102, !llvm.loop !51

115:                                              ; preds = %102
  %116 = load ptr, ptr %7, align 8
  %117 = getelementptr inbounds %struct.Bmcs_Man_t_, ptr %116, i32 0, i32 10
  store i32 0, ptr %117, align 8
  %118 = load i32, ptr %14, align 4
  ret i32 %118
}