; Function Attrs: nofree norecurse nosync nounwind memory(argmem: readwrite) uwtable
define i32 @Bmcs_ManPerform_Solve(ptr noundef writeonly captures(none) %0, i32 noundef %1, ptr noundef readnone captures(none) %2, ptr noundef captures(none) %3, i32 noundef %4, ptr noundef writeonly captures(none) %5) local_unnamed_addr #11 {
  %7 = icmp sgt i32 %4, 0
  br i1 %7, label %.lr.ph.preheader, label %.preheader43

.lr.ph.preheader:                                 ; preds = %6
  %wide.trip.count = zext nneg i32 %4 to i64
  br label %.lr.ph

.lr.ph49.preheader:                               ; preds = %.lr.ph
  %wide.trip.count72 = zext nneg i32 %4 to i64
  br label %.lr.ph49

.lr.ph:                                           ; preds = %.lr.ph.preheader, %.lr.ph
  %indvars.iv = phi i64 [ 0, %.lr.ph.preheader ], [ %indvars.iv.next, %.lr.ph ]
  %8 = getelementptr inbounds nuw %struct.Par_ThData_t_, ptr %3, i64 %indvars.iv, i32 1
  store i32 %1, ptr %8, align 8
  %indvars.iv.next = add nuw nsw i64 %indvars.iv, 1
  %exitcond.not = icmp eq i64 %indvars.iv.next, %wide.trip.count
  br i1 %exitcond.not, label %.lr.ph49.preheader, label %.lr.ph, !llvm.loop !45

.preheader43:                                     ; preds = %6
  %9 = icmp eq i32 %4, 0
  br i1 %9, label %.preheader42, label %._crit_edge

.preheader42.lr.ph:                               ; preds = %.lr.ph49
  %10 = getelementptr inbounds nuw i8, ptr %0, i64 888
  %wide.trip.count77 = zext nneg i32 %4 to i64
  br label %.preheader42.us

.preheader42.us:                                  ; preds = %.preheader42.lr.ph, %..loopexit_crit_edge.us
  %.053.us = phi i32 [ %.1.us, %..loopexit_crit_edge.us ], [ -1, %.preheader42.lr.ph ]
  br label %11

11:                                               ; preds = %.preheader42.us, %15
  %indvars.iv74 = phi i64 [ 0, %.preheader42.us ], [ %indvars.iv.next75, %15 ]
  %12 = getelementptr inbounds nuw %struct.Par_ThData_t_, ptr %3, i64 %indvars.iv74
  %13 = getelementptr inbounds nuw i8, ptr %12, i64 16
  %14 = load i32, ptr %13, align 8
  %.not39.us = icmp eq i32 %14, 0
  br i1 %.not39.us, label %16, label %15

15:                                               ; preds = %11
  %indvars.iv.next75 = add nuw nsw i64 %indvars.iv74, 1
  %exitcond78.not = icmp eq i64 %indvars.iv.next75, %wide.trip.count77
  br i1 %exitcond78.not, label %..loopexit_crit_edge.us, label %11, !llvm.loop !46

16:                                               ; preds = %11
  %17 = trunc nuw nsw i64 %indvars.iv74 to i32
  store i32 1, ptr %10, align 8
  %18 = getelementptr inbounds nuw i8, ptr %12, i64 20
  %19 = load i32, ptr %18, align 4
  store i32 %17, ptr %5, align 4
  br label %..loopexit_crit_edge.us

..loopexit_crit_edge.us:                          ; preds = %15, %16
  %.346.us = phi i32 [ %17, %16 ], [ %4, %15 ]
  %.1.us = phi i32 [ %19, %16 ], [ %.053.us, %15 ]
  %20 = icmp eq i32 %.346.us, %4
  br i1 %20, label %.preheader42.us, label %.lr.ph63.preheader, !llvm.loop !47

.lr.ph49:                                         ; preds = %.lr.ph49.preheader, %.lr.ph49
  %indvars.iv69 = phi i64 [ 0, %.lr.ph49.preheader ], [ %indvars.iv.next70, %.lr.ph49 ]
  %21 = getelementptr inbounds nuw %struct.Par_ThData_t_, ptr %3, i64 %indvars.iv69, i32 3
  store i32 1, ptr %21, align 8
  %indvars.iv.next70 = add nuw nsw i64 %indvars.iv69, 1
  %exitcond73.not = icmp eq i64 %indvars.iv.next70, %wide.trip.count72
  br i1 %exitcond73.not, label %.preheader42.lr.ph, label %.lr.ph49, !llvm.loop !48

.preheader42:                                     ; preds = %.preheader43, %.preheader42
  br label %.preheader42

.lr.ph63.preheader:                               ; preds = %..loopexit_crit_edge.us
  %wide.trip.count87 = zext nneg i32 %4 to i64
  br label %.lr.ph63

.lr.ph63:                                         ; preds = %.lr.ph63.preheader, %.lr.ph63
  %indvars.iv84 = phi i64 [ 0, %.lr.ph63.preheader ], [ %indvars.iv.next85, %.lr.ph63 ]
  %22 = getelementptr inbounds nuw %struct.Par_ThData_t_, ptr %3, i64 %indvars.iv84, i32 1
  store i32 -1, ptr %22, align 8
  %indvars.iv.next85 = add nuw nsw i64 %indvars.iv84, 1
  %exitcond88.not = icmp eq i64 %indvars.iv.next85, %wide.trip.count87
  br i1 %exitcond88.not, label %._crit_edge, label %.lr.ph63, !llvm.loop !49

._crit_edge:                                      ; preds = %.lr.ph63, %.preheader43
  %.0.lcssa9395 = phi i32 [ -1, %.preheader43 ], [ %.1.us, %.lr.ph63 ]
  %23 = getelementptr inbounds nuw i8, ptr %0, i64 888
  store i32 0, ptr %23, align 8
  ret i32 %.0.lcssa9395
}